target datalayout = "e-m:e-p270:32:32-p271:32:32-p272:64:64-i64:64-i128:128-f80:128-n8:16:32:64-S128"
target triple = "x86_64-pc-linux-gnu"

%struct.AVFilterContext = type { ptr, ptr, ptr, ptr, ptr, i32, ptr, ptr, i32, ptr, ptr, i32, i32, ptr, ptr, ptr, ptr, i32, ptr, i32, i32 }
%struct.AVFilter = type { ptr, ptr, ptr, ptr, ptr, i32 }
%struct.AudioSDRContext = type { i32, i64, double, ptr, [2 x ptr], ptr }
%struct.ChanStats = type { double, double, double }

@.str = private unnamed_addr constant [5 x i8] c"asdr\00", align 1
@.str.5 = private unnamed_addr constant [7 x i8] c"asisdr\00", align 1
@.str.11 = private unnamed_addr constant [17 x i8] c"SDR ch%d: %g dB\0A\00", align 1
@.str.12 = private unnamed_addr constant [20 x i8] c"SI-SDR ch%d: %g dB\0A\00", align 1
@.str.13 = private unnamed_addr constant [18 x i8] c"PSNR ch%d: %g dB\0A\00", align 1

; Function Attrs: cold nounwind optsize uwtable
define internal void @uninit(ptr noundef %0) #0 {
  %2 = alloca ptr, align 8
  %3 = alloca ptr, align 8
  %4 = alloca i32, align 4
  %5 = alloca i32, align 4
  %6 = alloca double, align 8
  %7 = alloca double, align 8
  %8 = alloca i32, align 4
  %9 = alloca double, align 8
  store ptr %0, ptr %2, align 8, !tbaa !4
  call void @llvm.lifetime.start.p0(i64 8, ptr %3) #7
  %10 = load ptr, ptr %2, align 8, !tbaa !4
  %11 = getelementptr inbounds nuw %struct.AVFilterContext, ptr %10, i32 0, i32 9
  %12 = load ptr, ptr %11, align 8, !tbaa !9
  store ptr %12, ptr %3, align 8, !tbaa !22
  %13 = load ptr, ptr %2, align 8, !tbaa !4
  %14 = getelementptr inbounds nuw %struct.AVFilterContext, ptr %13, i32 0, i32 1
  %15 = load ptr, ptr %14, align 8, !tbaa !24
  %16 = getelementptr inbounds nuw %struct.AVFilter, ptr %15, i32 0, i32 0
  %17 = load ptr, ptr %16, align 8, !tbaa !25
  %18 = call i32 @strcmp(ptr noundef %17, ptr noundef @.str) #8
  %19 = icmp ne i32 %18, 0
  br i1 %19, label %54, label %20

20:                                               ; preds = %1
  call void @llvm.lifetime.start.p0(i64 4, ptr %4) #7
  store i32 0, ptr %4, align 4, !tbaa !27
  br label %21

21:                                               ; preds = %50, %20
  %22 = load i32, ptr %4, align 4, !tbaa !27
  %23 = load ptr, ptr %3, align 8, !tbaa !22
  %24 = getelementptr inbounds nuw %struct.AudioSDRContext, ptr %23, i32 0, i32 0
  %25 = load i32, ptr %24, align 8, !tbaa !28
  %26 = icmp slt i32 %22, %25
  br i1 %26, label %28, label %27

27:                                               ; preds = %21
  call void @llvm.lifetime.end.p0(i64 4, ptr %4) #7
  br label %53

28:                                               ; preds = %21
  %29 = load ptr, ptr %2, align 8, !tbaa !4
  %30 = load i32, ptr %4, align 4, !tbaa !27
  %31 = load ptr, ptr %3, align 8, !tbaa !22
  %32 = getelementptr inbounds nuw %struct.AudioSDRContext, ptr %31, i32 0, i32 3
  %33 = load ptr, ptr %32, align 8, !tbaa !33
  %34 = load i32, ptr %4, align 4, !tbaa !27
  %35 = sext i32 %34 to i64
  %36 = getelementptr inbounds %struct.ChanStats, ptr %33, i64 %35
  %37 = getelementptr inbounds nuw %struct.ChanStats, ptr %36, i32 0, i32 0
  %38 = load double, ptr %37, align 8, !tbaa !34
  %39 = load ptr, ptr %3, align 8, !tbaa !22
  %40 = getelementptr inbounds nuw %struct.AudioSDRContext, ptr %39, i32 0, i32 3
  %41 = load ptr, ptr %40, align 8, !tbaa !33
  %42 = load i32, ptr %4, align 4, !tbaa !27
  %43 = sext i32 %42 to i64
  %44 = getelementptr inbounds %struct.ChanStats, ptr %41, i64 %43
  %45 = getelementptr inbounds nuw %struct.ChanStats, ptr %44, i32 0, i32 2
  %46 = load double, ptr %45, align 8, !tbaa !36
  %47 = fdiv nsz double %38, %46
  %48 = call nsz double @llvm.log10.f64(double %47)
  %49 = fmul nsz double 1.000000e+01, %48
  call void (ptr, i32, ptr, ...) @av_log(ptr noundef %29, i32 noundef 32, ptr noundef @.str.11, i32 noundef %30, double noundef %49)
  br label %50

50:                                               ; preds = %28
  %51 = load i32, ptr %4, align 4, !tbaa !27
  %52 = add nsw i32 %51, 1
  store i32 %52, ptr %4, align 4, !tbaa !27
  br label %21, !llvm.loop !37

53:                                               ; preds = %27
  br label %193

54:                                               ; preds = %1
  %55 = load ptr, ptr %2, align 8, !tbaa !4
  %56 = getelementptr inbounds nuw %struct.AVFilterContext, ptr %55, i32 0, i32 1
  %57 = load ptr, ptr %56, align 8, !tbaa !24
  %58 = getelementptr inbounds nuw %struct.AVFilter, ptr %57, i32 0, i32 0
  %59 = load ptr, ptr %58, align 8, !tbaa !25
  %60 = call i32 @strcmp(ptr noundef %59, ptr noundef @.str.5) #8
  %61 = icmp ne i32 %60, 0
  br i1 %61, label %143, label %62

62:                                               ; preds = %54
  call void @llvm.lifetime.start.p0(i64 4, ptr %5) #7
  store i32 0, ptr %5, align 4, !tbaa !27
  br label %63

63:                                               ; preds = %139, %62
  %64 = load i32, ptr %5, align 4, !tbaa !27
  %65 = load ptr, ptr %3, align 8, !tbaa !22
  %66 = getelementptr inbounds nuw %struct.AudioSDRContext, ptr %65, i32 0, i32 0
  %67 = load i32, ptr %66, align 8, !tbaa !28
  %68 = icmp slt i32 %64, %67
  br i1 %68, label %70, label %69

69:                                               ; preds = %63
  call void @llvm.lifetime.end.p0(i64 4, ptr %5) #7
  br label %142

70:                                               ; preds = %63
  call void @llvm.lifetime.start.p0(i64 8, ptr %6) #7
  %71 = load ptr, ptr %3, align 8, !tbaa !22
  %72 = getelementptr inbounds nuw %struct.AudioSDRContext, ptr %71, i32 0, i32 3
  %73 = load ptr, ptr %72, align 8, !tbaa !33
  %74 = load i32, ptr %5, align 4, !tbaa !27
  %75 = sext i32 %74 to i64
  %76 = getelementptr inbounds %struct.ChanStats, ptr %73, i64 %75
  %77 = getelementptr inbounds nuw %struct.ChanStats, ptr %76, i32 0, i32 2
  %78 = load double, ptr %77, align 8, !tbaa !36
  %79 = load ptr, ptr %3, align 8, !tbaa !22
  %80 = getelementptr inbounds nuw %struct.AudioSDRContext, ptr %79, i32 0, i32 3
  %81 = load ptr, ptr %80, align 8, !tbaa !33
  %82 = load i32, ptr %5, align 4, !tbaa !27
  %83 = sext i32 %82 to i64
  %84 = getelementptr inbounds %struct.ChanStats, ptr %81, i64 %83
  %85 = getelementptr inbounds nuw %struct.ChanStats, ptr %84, i32 0, i32 1
  %86 = load double, ptr %85, align 8, !tbaa !39
  %87 = fdiv nsz double %78, %86
  store double %87, ptr %6, align 8, !tbaa !40
  call void @llvm.lifetime.start.p0(i64 8, ptr %7) #7
  %88 = load double, ptr %6, align 8, !tbaa !40
  %89 = load double, ptr %6, align 8, !tbaa !40
  %90 = fmul nsz double %88, %89
  %91 = load ptr, ptr %3, align 8, !tbaa !22
  %92 = getelementptr inbounds nuw %struct.AudioSDRContext, ptr %91, i32 0, i32 3
  %93 = load ptr, ptr %92, align 8, !tbaa !33
  %94 = load i32, ptr %5, align 4, !tbaa !27
  %95 = sext i32 %94 to i64
  %96 = getelementptr inbounds %struct.ChanStats, ptr %93, i64 %95
  %97 = getelementptr inbounds nuw %struct.ChanStats, ptr %96, i32 0, i32 1
  %98 = load double, ptr %97, align 8, !tbaa !39
  %99 = fmul nsz double %90, %98
  %100 = load ptr, ptr %3, align 8, !tbaa !22
  %101 = getelementptr inbounds nuw %struct.AudioSDRContext, ptr %100, i32 0, i32 3
  %102 = load ptr, ptr %101, align 8, !tbaa !33
  %103 = load i32, ptr %5, align 4, !tbaa !27
  %104 = sext i32 %103 to i64
  %105 = getelementptr inbounds %struct.ChanStats, ptr %102, i64 %104
  %106 = getelementptr inbounds nuw %struct.ChanStats, ptr %105, i32 0, i32 0
  %107 = load double, ptr %106, align 8, !tbaa !34
  %108 = load double, ptr %6, align 8, !tbaa !40
  %109 = load double, ptr %6, align 8, !tbaa !40
  %110 = fmul nsz double %108, %109
  %111 = load ptr, ptr %3, align 8, !tbaa !22
  %112 = getelementptr inbounds nuw %struct.AudioSDRContext, ptr %111, i32 0, i32 3
  %113 = load ptr, ptr %112, align 8, !tbaa !33
  %114 = load i32, ptr %5, align 4, !tbaa !27
  %115 = sext i32 %114 to i64
  %116 = getelementptr inbounds %struct.ChanStats, ptr %113, i64 %115
  %117 = getelementptr inbounds nuw %struct.ChanStats, ptr %116, i32 0, i32 1
  %118 = load double, ptr %117, align 8, !tbaa !39
  %119 = call nsz double @llvm.fmuladd.f64(double %110, double %118, double %107)
  %120 = load double, ptr %6, align 8, !tbaa !40
  %121 = fmul nsz double 2.000000e+00, %120
  %122 = load ptr, ptr %3, align 8, !tbaa !22
  %123 = getelementptr inbounds nuw %struct.AudioSDRContext, ptr %122, i32 0, i32 3
  %124 = load ptr, ptr %123, align 8, !tbaa !33
  %125 = load i32, ptr %5, align 4, !tbaa !27
  %126 = sext i32 %125 to i64
  %127 = getelementptr inbounds %struct.ChanStats, ptr %124, i64 %126
  %128 = getelementptr inbounds nuw %struct.ChanStats, ptr %127, i32 0, i32 2
  %129 = load double, ptr %128, align 8, !tbaa !36
  %130 = fneg nsz double %121
  %131 = call nsz double @llvm.fmuladd.f64(double %130, double %129, double %119)
  %132 = call nsz double @llvm.maxnum.f64(double 0.000000e+00, double %131)
  %133 = fdiv nsz double %99, %132
  store double %133, ptr %7, align 8, !tbaa !40
  %134 = load ptr, ptr %2, align 8, !tbaa !4
  %135 = load i32, ptr %5, align 4, !tbaa !27
  %136 = load double, ptr %7, align 8, !tbaa !40
  %137 = call nsz double @llvm.log10.f64(double %136)
  %138 = fmul nsz double 1.000000e+01, %137
  call void (ptr, i32, ptr, ...) @av_log(ptr noundef %134, i32 noundef 32, ptr noundef @.str.12, i32 noundef %135, double noundef %138)
  call void @llvm.lifetime.end.p0(i64 8, ptr %7) #7
  call void @llvm.lifetime.end.p0(i64 8, ptr %6) #7
  br label %139

139:                                              ; preds = %70
  %140 = load i32, ptr %5, align 4, !tbaa !27
  %141 = add nsw i32 %140, 1
  store i32 %141, ptr %5, align 4, !tbaa !27
  br label %63, !llvm.loop !41

142:                                              ; preds = %69
  br label %192

143:                                              ; preds = %54
  call void @llvm.lifetime.start.p0(i64 4, ptr %8) #7
  store i32 0, ptr %8, align 4, !tbaa !27
  br label %144

144:                                              ; preds = %188, %143
  %145 = load i32, ptr %8, align 4, !tbaa !27
  %146 = load ptr, ptr %3, align 8, !tbaa !22
  %147 = getelementptr inbounds nuw %struct.AudioSDRContext, ptr %146, i32 0, i32 0
  %148 = load i32, ptr %147, align 8, !tbaa !28
  %149 = icmp slt i32 %145, %148
  br i1 %149, label %151, label %150

150:                                              ; preds = %144
  call void @llvm.lifetime.end.p0(i64 4, ptr %8) #7
  br label %191

151:                                              ; preds = %144
  call void @llvm.lifetime.start.p0(i64 8, ptr %9) #7
  %152 = load ptr, ptr %3, align 8, !tbaa !22
  %153 = getelementptr inbounds nuw %struct.AudioSDRContext, ptr %152, i32 0, i32 3
  %154 = load ptr, ptr %153, align 8, !tbaa !33
  %155 = load i32, ptr %8, align 4, !tbaa !27
  %156 = sext i32 %155 to i64
  %157 = getelementptr inbounds %struct.ChanStats, ptr %154, i64 %156
  %158 = getelementptr inbounds nuw %struct.ChanStats, ptr %157, i32 0, i32 2
  %159 = load double, ptr %158, align 8, !tbaa !36
  %160 = fcmp nsz ogt double %159, 0.000000e+00
  br i1 %160, label %161, label %182

161:                                              ; preds = %151
  %162 = load ptr, ptr %3, align 8, !tbaa !22
  %163 = getelementptr inbounds nuw %struct.AudioSDRContext, ptr %162, i32 0, i32 2
  %164 = load double, ptr %163, align 8, !tbaa !42
  %165 = call nsz double @llvm.log.f64(double %164)
  %166 = load ptr, ptr %3, align 8, !tbaa !22
  %167 = getelementptr inbounds nuw %struct.AudioSDRContext, ptr %166, i32 0, i32 1
  %168 = load i64, ptr %167, align 8, !tbaa !43
  %169 = uitofp i64 %168 to double
  %170 = load ptr, ptr %3, align 8, !tbaa !22
  %171 = getelementptr inbounds nuw %struct.AudioSDRContext, ptr %170, i32 0, i32 3
  %172 = load ptr, ptr %171, align 8, !tbaa !33
  %173 = load i32, ptr %8, align 4, !tbaa !27
  %174 = sext i32 %173 to i64
  %175 = getelementptr inbounds %struct.ChanStats, ptr %172, i64 %174
  %176 = getelementptr inbounds nuw %struct.ChanStats, ptr %175, i32 0, i32 2
  %177 = load double, ptr %176, align 8, !tbaa !36
  %178 = fdiv nsz double %169, %177
  %179 = call nsz double @llvm.log.f64(double %178)
  %180 = fneg nsz double %179
  %181 = call nsz double @llvm.fmuladd.f64(double 2.000000e+00, double %165, double %180)
  br label %183

182:                                              ; preds = %151
  br label %183

183:                                              ; preds = %182, %161
  %184 = phi nsz double [ %181, %161 ], [ 0x7FF0000000000000, %182 ]
  store double %184, ptr %9, align 8, !tbaa !40
  %185 = load ptr, ptr %2, align 8, !tbaa !4
  %186 = load i32, ptr %8, align 4, !tbaa !27
  %187 = load double, ptr %9, align 8, !tbaa !40
  call void (ptr, i32, ptr, ...) @av_log(ptr noundef %185, i32 noundef 32, ptr noundef @.str.13, i32 noundef %186, double noundef %187)
  call void @llvm.lifetime.end.p0(i64 8, ptr %9) #7
  br label %188

188:                                              ; preds = %183
  %189 = load i32, ptr %8, align 4, !tbaa !27
  %190 = add nsw i32 %189, 1
  store i32 %190, ptr %8, align 4, !tbaa !27
  br label %144, !llvm.loop !44

191:                                              ; preds = %150
  br label %192

192:                                              ; preds = %191, %142
  br label %193

193:                                              ; preds = %192, %53
  %194 = load ptr, ptr %3, align 8, !tbaa !22
  %195 = getelementptr inbounds nuw %struct.AudioSDRContext, ptr %194, i32 0, i32 4
  %196 = getelementptr inbounds [2 x ptr], ptr %195, i64 0, i64 0
  call void @av_frame_free(ptr noundef %196)
  %197 = load ptr, ptr %3, align 8, !tbaa !22
  %198 = getelementptr inbounds nuw %struct.AudioSDRContext, ptr %197, i32 0, i32 4
  %199 = getelementptr inbounds [2 x ptr], ptr %198, i64 0, i64 1
  call void @av_frame_free(ptr noundef %199)
  %200 = load ptr, ptr %3, align 8, !tbaa !22
  %201 = getelementptr inbounds nuw %struct.AudioSDRContext, ptr %200, i32 0, i32 3
  call void @av_freep(ptr noundef %201)
  call void @llvm.lifetime.end.p0(i64 8, ptr %3) #7
  ret void
}