; Function Attrs: cold nounwind optsize uwtable
define internal void @uninit(ptr noundef %0) #0 {
  %2 = getelementptr inbounds nuw i8, ptr %0, i64 72
  %3 = load ptr, ptr %2, align 8, !tbaa !4
  %4 = getelementptr inbounds nuw i8, ptr %0, i64 8
  %5 = load ptr, ptr %4, align 8, !tbaa !20
  %6 = load ptr, ptr %5, align 8, !tbaa !21
  %7 = tail call i32 @strcmp(ptr noundef nonnull dereferenceable(1) %6, ptr noundef nonnull dereferenceable(5) @.str) #9
  %.not = icmp eq i32 %7, 0
  br i1 %.not, label %.preheader, label %24

.preheader:                                       ; preds = %1
  %8 = load i32, ptr %3, align 8, !tbaa !23
  %9 = icmp sgt i32 %8, 0
  br i1 %9, label %.lr.ph61, label %.loopexit

.lr.ph61:                                         ; preds = %.preheader
  %10 = getelementptr inbounds nuw i8, ptr %3, i64 24
  br label %11

11:                                               ; preds = %.lr.ph61, %11
  %indvars.iv68 = phi i64 [ 0, %.lr.ph61 ], [ %indvars.iv.next69, %11 ]
  %12 = load ptr, ptr %10, align 8, !tbaa !28
  %13 = getelementptr inbounds nuw %struct.ChanStats, ptr %12, i64 %indvars.iv68
  %14 = load double, ptr %13, align 8, !tbaa !29
  %15 = getelementptr inbounds nuw i8, ptr %13, i64 16
  %16 = load double, ptr %15, align 8, !tbaa !31
  %17 = fdiv nsz double %14, %16
  %18 = tail call nsz double @llvm.log10.f64(double %17)
  %19 = fmul nsz double %18, 1.000000e+01
  %20 = trunc nuw nsw i64 %indvars.iv68 to i32
  tail call void (ptr, i32, ptr, ...) @av_log(ptr noundef nonnull %0, i32 noundef 32, ptr noundef nonnull @.str.11, i32 noundef %20, double noundef %19) #10
  %indvars.iv.next69 = add nuw nsw i64 %indvars.iv68, 1
  %21 = load i32, ptr %3, align 8, !tbaa !23
  %22 = sext i32 %21 to i64
  %23 = icmp slt i64 %indvars.iv.next69, %22
  br i1 %23, label %11, label %.loopexit, !llvm.loop !32

24:                                               ; preds = %1
  %25 = tail call i32 @strcmp(ptr noundef nonnull dereferenceable(1) %6, ptr noundef nonnull dereferenceable(7) @.str.5) #9
  %.not52 = icmp eq i32 %25, 0
  %26 = load i32, ptr %3, align 8, !tbaa !23
  %27 = icmp sgt i32 %26, 0
  br i1 %.not52, label %.preheader53, label %.preheader55

.preheader55:                                     ; preds = %24
  br i1 %27, label %.lr.ph, label %.loopexit

.lr.ph:                                           ; preds = %.preheader55
  %28 = getelementptr inbounds nuw i8, ptr %3, i64 24
  %29 = getelementptr inbounds nuw i8, ptr %3, i64 16
  %30 = getelementptr inbounds nuw i8, ptr %3, i64 8
  br label %54

.preheader53:                                     ; preds = %24
  br i1 %27, label %.lr.ph59, label %.loopexit

.lr.ph59:                                         ; preds = %.preheader53
  %31 = getelementptr inbounds nuw i8, ptr %3, i64 24
  br label %32

32:                                               ; preds = %.lr.ph59, %32
  %indvars.iv65 = phi i64 [ 0, %.lr.ph59 ], [ %indvars.iv.next66, %32 ]
  %33 = load ptr, ptr %31, align 8, !tbaa !28
  %34 = getelementptr inbounds nuw %struct.ChanStats, ptr %33, i64 %indvars.iv65
  %35 = getelementptr inbounds nuw i8, ptr %34, i64 16
  %36 = load double, ptr %35, align 8, !tbaa !31
  %37 = getelementptr inbounds nuw i8, ptr %34, i64 8
  %38 = load double, ptr %37, align 8, !tbaa !34
  %39 = fdiv nsz double %36, %38
  %40 = fmul nsz double %39, %39
  %41 = fmul nsz double %38, %40
  %42 = load double, ptr %34, align 8, !tbaa !29
  %43 = tail call nsz double @llvm.fmuladd.f64(double %40, double %38, double %42)
  %44 = fmul nsz double %39, -2.000000e+00
  %45 = tail call nsz double @llvm.fmuladd.f64(double %44, double %36, double %43)
  %46 = tail call nsz double @llvm.maxnum.f64(double %45, double 0.000000e+00)
  %47 = fdiv nsz double %41, %46
  %48 = tail call nsz double @llvm.log10.f64(double %47)
  %49 = fmul nsz double %48, 1.000000e+01
  %50 = trunc nuw nsw i64 %indvars.iv65 to i32
  tail call void (ptr, i32, ptr, ...) @av_log(ptr noundef nonnull %0, i32 noundef 32, ptr noundef nonnull @.str.12, i32 noundef %50, double noundef %49) #10
  %indvars.iv.next66 = add nuw nsw i64 %indvars.iv65, 1
  %51 = load i32, ptr %3, align 8, !tbaa !23
  %52 = sext i32 %51 to i64
  %53 = icmp slt i64 %indvars.iv.next66, %52
  br i1 %53, label %32, label %.loopexit, !llvm.loop !35

54:                                               ; preds = %.lr.ph, %68
  %indvars.iv = phi i64 [ 0, %.lr.ph ], [ %indvars.iv.next, %68 ]
  %55 = load ptr, ptr %28, align 8, !tbaa !28
  %56 = getelementptr inbounds nuw %struct.ChanStats, ptr %55, i64 %indvars.iv, i32 2
  %57 = load double, ptr %56, align 8, !tbaa !31
  %58 = fcmp nsz ogt double %57, 0.000000e+00
  br i1 %58, label %59, label %68

59:                                               ; preds = %54
  %60 = load double, ptr %29, align 8, !tbaa !36
  %61 = tail call nsz double @llvm.log.f64(double %60)
  %62 = load i64, ptr %30, align 8, !tbaa !37
  %63 = uitofp i64 %62 to double
  %64 = fdiv nsz double %63, %57
  %65 = tail call nsz double @llvm.log.f64(double %64)
  %66 = fneg nsz double %65
  %67 = tail call nsz double @llvm.fmuladd.f64(double %61, double 2.000000e+00, double %66)
  br label %68

68:                                               ; preds = %54, %59
  %69 = phi nsz double [ %67, %59 ], [ 0x7FF0000000000000, %54 ]
  %70 = trunc nuw nsw i64 %indvars.iv to i32
  tail call void (ptr, i32, ptr, ...) @av_log(ptr noundef %0, i32 noundef 32, ptr noundef nonnull @.str.13, i32 noundef %70, double noundef %69) #10
  %indvars.iv.next = add nuw nsw i64 %indvars.iv, 1
  %71 = load i32, ptr %3, align 8, !tbaa !23
  %72 = sext i32 %71 to i64
  %73 = icmp slt i64 %indvars.iv.next, %72
  br i1 %73, label %54, label %.loopexit, !llvm.loop !38

.loopexit:                                        ; preds = %68, %32, %11, %.preheader55, %.preheader53, %.preheader
  %74 = getelementptr inbounds nuw i8, ptr %3, i64 32
  tail call void @av_frame_free(ptr noundef nonnull %74) #10
  %75 = getelementptr inbounds nuw i8, ptr %3, i64 40
  tail call void @av_frame_free(ptr noundef nonnull %75) #10
  %76 = getelementptr inbounds nuw i8, ptr %3, i64 24
  tail call void @av_freep(ptr noundef nonnull %76) #10
  ret void
}